Microsoft (R) COFF/PE Dumper Version 10.00.30319.01
Copyright (C) Microsoft Corporation.  All rights reserved.


Dump of file ..\bin\pixelengine.dll

File Type: DLL

  Section contains the following exports for pixelengine.dll

    00000000 characteristics
    FFFFFFFF time date stamp Sun Feb 07 09:28:15 2106
        0.00 version
           1 ordinal base
         243 number of functions
         243 number of names

    ordinal hint RVA      name

          1    0 00043830 ??$getHelper@G@ISyntaxFacade@PixelEngine@@AEBAGW4Key@1@AEBV?$map@W4Key@PixelEngine@@P8ImageContainer@@EBAGXZU?$less@W4Key@PixelEngine@@@std@@V?$allocator@U?$pair@$$CBW4Key@PixelEngine@@P8ImageContainer@@EBAGXZ@std@@@5@@std@@@Z
          2    1 00043C70 ??$getHelper@N@ISyntaxFacade@PixelEngine@@AEBANW4Key@1@AEBV?$map@W4Key@PixelEngine@@P8ImageContainer@@EBAN_K@ZU?$less@W4Key@PixelEngine@@@std@@V?$allocator@U?$pair@$$CBW4Key@PixelEngine@@P8ImageContainer@@EBAN_K@Z@std@@@5@@std@@_K@Z
          3    2 00043610 ??$getHelper@V?$basic_string@DU?$char_traits@D@std@@V?$allocator@D@2@@std@@@ISyntaxFacade@PixelEngine@@AEBAAEBV?$basic_string@DU?$char_traits@D@std@@V?$allocator@D@2@@std@@W4Key@1@AEBV?$map@W4Key@PixelEngine@@P8ImageContainer@@EBAAEBV?$basic_string@DU?$char_traits@D@std@@V?$allocator@D@2@@std@@XZU?$less@W4Key@PixelEngine@@@5@V?$allocator@U?$pair@$$CBW4Key@PixelEngine@@P8ImageContainer@@EBAAEBV?$basic_string@DU?$char_traits@D@std@@V?$allocator@D@2@@std@@XZ@std@@@5@@3@@Z
          4    3 00043720 ??$getHelper@V?$basic_string@DU?$char_traits@D@std@@V?$allocator@D@2@@std@@@ISyntaxFacade@PixelEngine@@AEBAAEBV?$basic_string@DU?$char_traits@D@std@@V?$allocator@D@2@@std@@W4Key@1@AEBV?$map@W4Key@PixelEngine@@P8ImageContainer@@EBAAEBV?$basic_string@DU?$char_traits@D@std@@V?$allocator@D@2@@std@@_K@ZU?$less@W4Key@PixelEngine@@@5@V?$allocator@U?$pair@$$CBW4Key@PixelEngine@@P8ImageContainer@@EBAAEBV?$basic_string@DU?$char_traits@D@std@@V?$allocator@D@2@@std@@_K@Z@std@@@5@@3@_K@Z
          5    4 00044200 ??$getHelper@V?$vector@EV?$allocator@E@std@@@std@@@ISyntaxFacade@PixelEngine@@AEBAAEBV?$vector@EV?$allocator@E@std@@@std@@W4Key@1@AEBV?$map@W4Key@PixelEngine@@P8ImageContainer@@EBAAEBV?$vector@EV?$allocator@E@std@@@std@@_K@ZU?$less@W4Key@PixelEngine@@@5@V?$allocator@U?$pair@$$CBW4Key@PixelEngine@@P8ImageContainer@@EBAAEBV?$vector@EV?$allocator@E@std@@@std@@_K@Z@std@@@5@@3@_K@Z
          6    5 00043D80 ??$getHelper@V?$vector@NV?$allocator@N@std@@@std@@@ISyntaxFacade@PixelEngine@@AEBA?AV?$vector@NV?$allocator@N@std@@@std@@W4Key@1@AEBV?$map@W4Key@PixelEngine@@P8ImageContainer@@EBA?AV?$vector@NV?$allocator@N@std@@@std@@_K@ZU?$less@W4Key@PixelEngine@@@5@V?$allocator@U?$pair@$$CBW4Key@PixelEngine@@P8ImageContainer@@EBA?AV?$vector@NV?$allocator@N@std@@@std@@_K@Z@std@@@5@@3@_K@Z
          7    6 000440A0 ??$getHelper@V?$vector@U?$pair@V?$vector@GV?$allocator@G@std@@@std@@V?$vector@V?$vector@IV?$allocator@I@std@@@std@@V?$allocator@V?$vector@IV?$allocator@I@std@@@std@@@2@@2@@std@@V?$allocator@U?$pair@V?$vector@GV?$allocator@G@std@@@std@@V?$vector@V?$vector@IV?$allocator@I@std@@@std@@V?$allocator@V?$vector@IV?$allocator@I@std@@@std@@@2@@2@@std@@@2@@std@@@ISyntaxFacade@PixelEngine@@AEBA?AV?$vector@U?$pair@V?$vector@GV?$allocator@G@std@@@std@@V?$vector@V?$vector@IV?$allocator@I@std@@@std@@V?$allocator@V?$vector@IV?$allocator@I@std@@@std@@@2@@2@@std@@V?$allocator@U?$pair@V?$vector@GV?$allocator@G@std@@@std@@V?$vector@V?$vector@IV?$allocator@I@std@@@std@@V?$allocator@V?$vector@IV?$allocator@I@std@@@std@@@2@@2@@std@@@2@@std@@W4Key@1@AEBV?$map@W4Key@PixelEngine@@P8ImageContainer@@EBA?AV?$vector@U?$pair@V?$vector@GV?$allocator@G@std@@@std@@V?$vector@V?$vector@IV?$allocator@I@std@@@std@@V?$allocator@V?$vector@IV?$allocator@I@std@@@std@@@2@@2@@std@@V?$allocator@U?$pair@V?$vector@GV?$allocator@G@std@@@std@@V?$vector@V?$vector@IV?$allocator@I@std@@@std@@V?$allocator@V?$vector@IV?$allocator@I@std@@@std@@@2@@2@@std@@@2@@std@@_K@ZU?$less@W4Key@PixelEngine@@@5@V?$allocator@U?$pair@$$CBW4Key@PixelEngine@@P8ImageContainer@@EBA?AV?$vector@U?$pair@V?$vector@GV?$allocator@G@std@@@std@@V?$vector@V?$vector@IV?$allocator@I@std@@@std@@V?$allocator@V?$vector@IV?$allocator@I@std@@@std@@@2@@2@@std@@V?$allocator@U?$pair@V?$vector@GV?$allocator@G@std@@@std@@V?$vector@V?$vector@IV?$allocator@I@std@@@std@@V?$allocator@V?$vector@IV?$allocator@I@std@@@std@@@2@@2@@std@@@2@@std@@_K@Z@std@@@5@@3@_K@Z
          8    7 00043DB0 ??$getHelper@V?$vector@V?$array@I$02@std@@V?$allocator@V?$array@I$02@std@@@2@@std@@@ISyntaxFacade@PixelEngine@@AEBA?AV?$vector@V?$array@I$02@std@@V?$allocator@V?$array@I$02@std@@@2@@std@@W4Key@1@AEBV?$map@W4Key@PixelEngine@@P8ImageContainer@@EBA?AV?$vector@V?$array@I$02@std@@V?$allocator@V?$array@I$02@std@@@2@@std@@_K@ZU?$less@W4Key@PixelEngine@@@5@V?$allocator@U?$pair@$$CBW4Key@PixelEngine@@P8ImageContainer@@EBA?AV?$vector@V?$array@I$02@std@@V?$allocator@V?$array@I$02@std@@@2@@std@@_K@Z@std@@@5@@3@_K@Z
          9    8 00043DE0 ??$getHelper@V?$vector@V?$basic_string@DU?$char_traits@D@std@@V?$allocator@D@2@@std@@V?$allocator@V?$basic_string@DU?$char_traits@D@std@@V?$allocator@D@2@@std@@@2@@std@@@ISyntaxFacade@PixelEngine@@AEBA?AV?$vector@V?$basic_string@DU?$char_traits@D@std@@V?$allocator@D@2@@std@@V?$allocator@V?$basic_string@DU?$char_traits@D@std@@V?$allocator@D@2@@std@@@2@@std@@W4Key@1@AEBV?$map@W4Key@PixelEngine@@P8ImageContainer@@EBA?AV?$vector@V?$basic_string@DU?$char_traits@D@std@@V?$allocator@D@2@@std@@V?$allocator@V?$basic_string@DU?$char_traits@D@std@@V?$allocator@D@2@@std@@@2@@std@@_K@ZU?$less@W4Key@PixelEngine@@@5@V?$allocator@U?$pair@$$CBW4Key@PixelEngine@@P8ImageContainer@@EBA?AV?$vector@V?$basic_string@DU?$char_traits@D@std@@V?$allocator@D@2@@std@@V?$allocator@V?$basic_string@DU?$char_traits@D@std@@V?$allocator@D@2@@std@@@2@@std@@_K@Z@std@@@5@@3@_K@Z
         10    9 00043A50 ??$getHelper@V?$vector@V?$basic_string@DU?$char_traits@D@std@@V?$allocator@D@2@@std@@V?$allocator@V?$basic_string@DU?$char_traits@D@std@@V?$allocator@D@2@@std@@@2@@std@@@ISyntaxFacade@PixelEngine@@AEBAAEBV?$vector@V?$basic_string@DU?$char_traits@D@std@@V?$allocator@D@2@@std@@V?$allocator@V?$basic_string@DU?$char_traits@D@std@@V?$allocator@D@2@@std@@@2@@std@@W4Key@1@AEBV?$map@W4Key@PixelEngine@@P8ImageContainer@@EBAAEBV?$vector@V?$basic_string@DU?$char_traits@D@std@@V?$allocator@D@2@@std@@V?$allocator@V?$basic_string@DU?$char_traits@D@std@@V?$allocator@D@2@@std@@@2@@std@@XZU?$less@W4Key@PixelEngine@@@5@V?$allocator@U?$pair@$$CBW4Key@PixelEngine@@P8ImageContainer@@EBAAEBV?$vector@V?$basic_string@DU?$char_traits@D@std@@V?$allocator@D@2@@std@@V?$allocator@V?$basic_string@DU?$char_traits@D@std@@V?$allocator@D@2@@std@@@2@@std@@XZ@std@@@5@@3@@Z
         11    A 00043F40 ??$getHelper@V?$vector@V?$vector@V?$basic_string@DU?$char_traits@D@std@@V?$allocator@D@2@@std@@V?$allocator@V?$basic_string@DU?$char_traits@D@std@@V?$allocator@D@2@@std@@@2@@std@@V?$allocator@V?$vector@V?$basic_string@DU?$char_traits@D@std@@V?$allocator@D@2@@std@@V?$allocator@V?$basic_string@DU?$char_traits@D@std@@V?$allocator@D@2@@std@@@2@@std@@@2@@std@@@ISyntaxFacade@PixelEngine@@AEBA?AV?$vector@V?$vector@V?$basic_string@DU?$char_traits@D@std@@V?$allocator@D@2@@std@@V?$allocator@V?$basic_string@DU?$char_traits@D@std@@V?$allocator@D@2@@std@@@2@@std@@V?$allocator@V?$vector@V?$basic_string@DU?$char_traits@D@std@@V?$allocator@D@2@@std@@V?$allocator@V?$basic_string@DU?$char_traits@D@std@@V?$allocator@D@2@@std@@@2@@std@@@2@@std@@W4Key@1@AEBV?$map@W4Key@PixelEngine@@P8ImageContainer@@EBA?AV?$vector@V?$vector@V?$basic_string@DU?$char_traits@D@std@@V?$allocator@D@2@@std@@V?$allocator@V?$basic_string@DU?$char_traits@D@std@@V?$allocator@D@2@@std@@@2@@std@@V?$allocator@V?$vector@V?$basic_string@DU?$char_traits@D@std@@V?$allocator@D@2@@std@@V?$allocator@V?$basic_string@DU?$char_traits@D@std@@V?$allocator@D@2@@std@@@2@@std@@@2@@std@@_K@ZU?$less@W4Key@PixelEngine@@@5@V?$allocator@U?$pair@$$CBW4Key@PixelEngine@@P8ImageContainer@@EBA?AV?$vector@V?$vector@V?$basic_string@DU?$char_traits@D@std@@V?$allocator@D@2@@std@@V?$allocator@V?$basic_string@DU?$char_traits@D@std@@V?$allocator@D@2@@std@@@2@@std@@V?$allocator@V?$vector@V?$basic_string@DU?$char_traits@D@std@@V?$allocator@D@2@@std@@V?$allocator@V?$basic_string@DU?$char_traits@D@std@@V?$allocator@D@2@@std@@@2@@std@@@2@@std@@_K@Z@std@@@5@@3@_K@Z
         12    B 00043940 ??$getHelper@_K@ISyntaxFacade@PixelEngine@@AEBA_KW4Key@1@AEBV?$map@W4Key@PixelEngine@@P8ImageContainer@@EBA_KXZU?$less@W4Key@PixelEngine@@@std@@V?$allocator@U?$pair@$$CBW4Key@PixelEngine@@P8ImageContainer@@EBA_KXZ@std@@@5@@std@@@Z
         13    C 00043B60 ??$getHelper@_N@ISyntaxFacade@PixelEngine@@AEBA_NW4Key@1@AEBV?$map@W4Key@PixelEngine@@P8ImageContainer@@EBA_N_K@ZU?$less@W4Key@PixelEngine@@@std@@V?$allocator@U?$pair@$$CBW4Key@PixelEngine@@P8ImageContainer@@EBA_N_K@Z@std@@@5@@std@@_K@Z
         14    D 000ADCF0 ??$getViewHelper@VViewIMAGEPROCESSING@PixelEngine@@@ISyntaxFacade@PixelEngine@@AEBA?AVViewIMAGEPROCESSING@1@W4CannedView@1@@Z
         15    E 000ADB10 ??$getViewHelper@VViewIVD@PixelEngine@@@ISyntaxFacade@PixelEngine@@AEBA?AVViewIVD@1@W4CannedView@1@@Z
         16    F 000ADA20 ??$getViewHelper@VViewSOURCE@PixelEngine@@@ISyntaxFacade@PixelEngine@@AEBA?AVViewSOURCE@1@W4CannedView@1@@Z
         17   10 000ADC00 ??$getViewHelper@VViewSOURCETRUNCATION@PixelEngine@@@ISyntaxFacade@PixelEngine@@AEBA?AVViewSOURCETRUNCATION@1@W4CannedView@1@@Z
         18   11 00042630 ??$setHelper@G@ISyntaxFacade@PixelEngine@@AEAAXW4Key@1@AEBV?$map@W4Key@PixelEngine@@P8ImageContainer@@EAAXG@ZU?$less@W4Key@PixelEngine@@@std@@V?$allocator@U?$pair@$$CBW4Key@PixelEngine@@P8ImageContainer@@EAAXG@Z@std@@@5@@std@@G@Z
         19   12 00042AB0 ??$setHelper@N@ISyntaxFacade@PixelEngine@@AEAAXW4Key@1@AEBV?$map@W4Key@PixelEngine@@P8ImageContainer@@EAAXN_K@ZU?$less@W4Key@PixelEngine@@@std@@V?$allocator@U?$pair@$$CBW4Key@PixelEngine@@P8ImageContainer@@EAAXN_K@Z@std@@@5@@std@@N_K@Z
         20   13 00042360 ??$setHelper@V?$basic_string@DU?$char_traits@D@std@@V?$allocator@D@2@@std@@@ISyntaxFacade@PixelEngine@@AEAAXW4Key@1@AEBV?$map@W4Key@PixelEngine@@P8ImageContainer@@EAAXAEBV?$basic_string@DU?$char_traits@D@std@@V?$allocator@D@2@@std@@@ZU?$less@W4Key@PixelEngine@@@5@V?$allocator@U?$pair@$$CBW4Key@PixelEngine@@P8ImageContainer@@EAAXAEBV?$basic_string@DU?$char_traits@D@std@@V?$allocator@D@2@@std@@@Z@std@@@5@@std@@AEBV?$basic_string@DU?$char_traits@D@std@@V?$allocator@D@2@@4@@Z
         21   14 000424B0 ??$setHelper@V?$basic_string@DU?$char_traits@D@std@@V?$allocator@D@2@@std@@@ISyntaxFacade@PixelEngine@@AEAAXW4Key@1@AEBV?$map@W4Key@PixelEngine@@P8ImageContainer@@EAAXAEBV?$basic_string@DU?$char_traits@D@std@@V?$allocator@D@2@@std@@_K@ZU?$less@W4Key@PixelEngine@@@5@V?$allocator@U?$pair@$$CBW4Key@PixelEngine@@P8ImageContainer@@EAAXAEBV?$basic_string@DU?$char_traits@D@std@@V?$allocator@D@2@@std@@_K@Z@std@@@5@@std@@AEBV?$basic_string@DU?$char_traits@D@std@@V?$allocator@D@2@@4@_K@Z
         22   15 00043490 ??$setHelper@V?$vector@EV?$allocator@E@std@@@std@@@ISyntaxFacade@PixelEngine@@AEAAXW4Key@1@AEBV?$map@W4Key@PixelEngine@@P8ImageContainer@@EAAXAEBV?$vector@EV?$allocator@E@std@@@std@@_K@ZU?$less@W4Key@PixelEngine@@@5@V?$allocator@U?$pair@$$CBW4Key@PixelEngine@@P8ImageContainer@@EAAXAEBV?$vector@EV?$allocator@E@std@@@std@@_K@Z@std@@@5@@std@@AEBV?$vector@EV?$allocator@E@std@@@4@_K@Z
         23   16 00042C20 ??$setHelper@V?$vector@NV?$allocator@N@std@@@std@@@ISyntaxFacade@PixelEngine@@AEAAXW4Key@1@AEBV?$map@W4Key@PixelEngine@@P8ImageContainer@@EAAXAEBV?$vector@NV?$allocator@N@std@@@std@@_K@ZU?$less@W4Key@PixelEngine@@@5@V?$allocator@U?$pair@$$CBW4Key@PixelEngine@@P8ImageContainer@@EAAXAEBV?$vector@NV?$allocator@N@std@@@std@@_K@Z@std@@@5@@std@@AEBV?$vector@NV?$allocator@N@std@@@4@_K@Z
         24   17 000432E0 ??$setHelper@V?$vector@U?$pair@V?$vector@GV?$allocator@G@std@@@std@@V?$vector@V?$vector@IV?$allocator@I@std@@@std@@V?$allocator@V?$vector@IV?$allocator@I@std@@@std@@@2@@2@@std@@V?$allocator@U?$pair@V?$vector@GV?$allocator@G@std@@@std@@V?$vector@V?$vector@IV?$allocator@I@std@@@std@@V?$allocator@V?$vector@IV?$allocator@I@std@@@std@@@2@@2@@std@@@2@@std@@@ISyntaxFacade@PixelEngine@@AEAAXW4Key@1@AEBV?$map@W4Key@PixelEngine@@P8ImageContainer@@EAAXAEBV?$vector@U?$pair@V?$vector@GV?$allocator@G@std@@@std@@V?$vector@V?$vector@IV?$allocator@I@std@@@std@@V?$allocator@V?$vector@IV?$allocator@I@std@@@std@@@2@@2@@std@@V?$allocator@U?$pair@V?$vector@GV?$allocator@G@std@@@std@@V?$vector@V?$vector@IV?$allocator@I@std@@@std@@V?$allocator@V?$vector@IV?$allocator@I@std@@@std@@@2@@2@@std@@@2@@std@@_K@ZU?$less@W4Key@PixelEngine@@@5@V?$allocator@U?$pair@$$CBW4Key@PixelEngine@@P8ImageContainer@@EAAXAEBV?$vector@U?$pair@V?$vector@GV?$allocator@G@std@@@std@@V?$vector@V?$vector@IV?$allocator@I@std@@@std@@V?$allocator@V?$vector@IV?$allocator@I@std@@@std@@@2@@2@@std@@V?$allocator@U?$pair@V?$vector@GV?$allocator@G@std@@@std@@V?$vector@V?$vector@IV?$allocator@I@std@@@std@@V?$allocator@V?$vector@IV?$allocator@I@std@@@std@@@2@@2@@std@@@2@@std@@_K@Z@std@@@5@@std@@AEBV?$vector@U?$pair@V?$vector@GV?$allocator@G@std@@@std@@V?$vector@V?$vector@IV?$allocator@I@std@@@std@@V?$allocator@V?$vector@IV?$allocator@I@std@@@std@@@2@@2@@std@@V?$allocator@U?$pair@V?$vector@GV?$allocator@G@std@@@std@@V?$vector@V?$vector@IV?$allocator@I@std@@@std@@V?$allocator@V?$vector@IV?$allocator@I@std@@@std@@@2@@2@@std@@@2@@4@_K@Z
         25   18 00042DD0 ??$setHelper@V?$vector@V?$array@I$02@std@@V?$allocator@V?$array@I$02@std@@@2@@std@@@ISyntaxFacade@PixelEngine@@AEAAXW4Key@1@AEBV?$map@W4Key@PixelEngine@@P8ImageContainer@@EAAXAEBV?$vector@V?$array@I$02@std@@V?$allocator@V?$array@I$02@std@@@2@@std@@_K@ZU?$less@W4Key@PixelEngine@@@5@V?$allocator@U?$pair@$$CBW4Key@PixelEngine@@P8ImageContainer@@EAAXAEBV?$vector@V?$array@I$02@std@@V?$allocator@V?$array@I$02@std@@@2@@std@@_K@Z@std@@@5@@std@@AEBV?$vector@V?$array@I$02@std@@V?$allocator@V?$array@I$02@std@@@2@@4@_K@Z
         26   19 00042790 ??$setHelper@V?$vector@V?$basic_string@DU?$char_traits@D@std@@V?$allocator@D@2@@std@@V?$allocator@V?$basic_string@DU?$char_traits@D@std@@V?$allocator@D@2@@std@@@2@@std@@@ISyntaxFacade@PixelEngine@@AEAAXW4Key@1@AEBV?$map@W4Key@PixelEngine@@P8ImageContainer@@EAAXAEBV?$vector@V?$basic_string@DU?$char_traits@D@std@@V?$allocator@D@2@@std@@V?$allocator@V?$basic_string@DU?$char_traits@D@std@@V?$allocator@D@2@@std@@@2@@std@@@ZU?$less@W4Key@PixelEngine@@@5@V?$allocator@U?$pair@$$CBW4Key@PixelEngine@@P8ImageContainer@@EAAXAEBV?$vector@V?$basic_string@DU?$char_traits@D@std@@V?$allocator@D@2@@std@@V?$allocator@V?$basic_string@DU?$char_traits@D@std@@V?$allocator@D@2@@std@@@2@@std@@@Z@std@@@5@@std@@AEBV?$vector@V?$basic_string@DU?$char_traits@D@std@@V?$allocator@D@2@@std@@V?$allocator@V?$basic_string@DU?$char_traits@D@std@@V?$allocator@D@2@@std@@@2@@4@@Z
         27   1A 00042F80 ??$setHelper@V?$vector@V?$basic_string@DU?$char_traits@D@std@@V?$allocator@D@2@@std@@V?$allocator@V?$basic_string@DU?$char_traits@D@std@@V?$allocator@D@2@@std@@@2@@std@@@ISyntaxFacade@PixelEngine@@AEAAXW4Key@1@AEBV?$map@W4Key@PixelEngine@@P8ImageContainer@@EAAXAEBV?$vector@V?$basic_string@DU?$char_traits@D@std@@V?$allocator@D@2@@std@@V?$allocator@V?$basic_string@DU?$char_traits@D@std@@V?$allocator@D@2@@std@@@2@@std@@_K@ZU?$less@W4Key@PixelEngine@@@5@V?$allocator@U?$pair@$$CBW4Key@PixelEngine@@P8ImageContainer@@EAAXAEBV?$vector@V?$basic_string@DU?$char_traits@D@std@@V?$allocator@D@2@@std@@V?$allocator@V?$basic_string@DU?$char_traits@D@std@@V?$allocator@D@2@@std@@@2@@std@@_K@Z@std@@@5@@std@@AEBV?$vector@V?$basic_string@DU?$char_traits@D@std@@V?$allocator@D@2@@std@@V?$allocator@V?$basic_string@DU?$char_traits@D@std@@V?$allocator@D@2@@std@@@2@@4@_K@Z
         28   1B 00043130 ??$setHelper@V?$vector@V?$vector@V?$basic_string@DU?$char_traits@D@std@@V?$allocator@D@2@@std@@V?$allocator@V?$basic_string@DU?$char_traits@D@std@@V?$allocator@D@2@@std@@@2@@std@@V?$allocator@V?$vector@V?$basic_string@DU?$char_traits@D@std@@V?$allocator@D@2@@std@@V?$allocator@V?$basic_string@DU?$char_traits@D@std@@V?$allocator@D@2@@std@@@2@@std@@@2@@std@@@ISyntaxFacade@PixelEngine@@AEAAXW4Key@1@AEBV?$map@W4Key@PixelEngine@@P8ImageContainer@@EAAXAEBV?$vector@V?$vector@V?$basic_string@DU?$char_traits@D@std@@V?$allocator@D@2@@std@@V?$allocator@V?$basic_string@DU?$char_traits@D@std@@V?$allocator@D@2@@std@@@2@@std@@V?$allocator@V?$vector@V?$basic_string@DU?$char_traits@D@std@@V?$allocator@D@2@@std@@V?$allocator@V?$basic_string@DU?$char_traits@D@std@@V?$allocator@D@2@@std@@@2@@std@@@2@@std@@_K@ZU?$less@W4Key@PixelEngine@@@5@V?$allocator@U?$pair@$$CBW4Key@PixelEngine@@P8ImageContainer@@EAAXAEBV?$vector@V?$vector@V?$basic_string@DU?$char_traits@D@std@@V?$allocator@D@2@@std@@V?$allocator@V?$basic_string@DU?$char_traits@D@std@@V?$allocator@D@2@@std@@@2@@std@@V?$allocator@V?$vector@V?$basic_string@DU?$char_traits@D@std@@V?$allocator@D@2@@std@@V?$allocator@V?$basic_string@DU?$char_traits@D@std@@V?$allocator@D@2@@std@@@2@@std@@@2@@std@@_K@Z@std@@@5@@std@@AEBV?$vector@V?$vector@V?$basic_string@DU?$char_traits@D@std@@V?$allocator@D@2@@std@@V?$allocator@V?$basic_string@DU?$char_traits@D@std@@V?$allocator@D@2@@std@@@2@@std@@V?$allocator@V?$vector@V?$basic_string@DU?$char_traits@D@std@@V?$allocator@D@2@@std@@V?$allocator@V?$basic_string@DU?$char_traits@D@std@@V?$allocator@D@2@@std@@@2@@std@@@2@@4@_K@Z
         29   1C 00042930 ??$setHelper@_N@ISyntaxFacade@PixelEngine@@AEAAXW4Key@1@AEBV?$map@W4Key@PixelEngine@@P8ImageContainer@@EAAX_N_K@ZU?$less@W4Key@PixelEngine@@@std@@V?$allocator@U?$pair@$$CBW4Key@PixelEngine@@P8ImageContainer@@EAAX_N_K@Z@std@@@5@@std@@_N_K@Z
         30   1D 00052C60 ??0DataEnvelopes@PixelEngine@@AEAA@AEBV?$vector@U?$pair@V?$vector@GV?$allocator@G@std@@@std@@V?$vector@V?$vector@IV?$allocator@I@std@@@std@@V?$allocator@V?$vector@IV?$allocator@I@std@@@std@@@2@@2@@std@@V?$allocator@U?$pair@V?$vector@GV?$allocator@G@std@@@std@@V?$vector@V?$vector@IV?$allocator@I@std@@@std@@V?$allocator@V?$vector@IV?$allocator@I@std@@@std@@@2@@2@@std@@@2@@std@@0@Z
         31   1E 0002F680 ??0DataEnvelopes@PixelEngine@@QEAA@$$QEAV01@@Z
         32   1F 00052B50 ??0DataEnvelopes@PixelEngine@@QEAA@AEBV?$vector@U?$pair@V?$vector@GV?$allocator@G@std@@@std@@V?$vector@V?$vector@IV?$allocator@I@std@@@std@@V?$allocator@V?$vector@IV?$allocator@I@std@@@std@@@2@@2@@std@@V?$allocator@U?$pair@V?$vector@GV?$allocator@G@std@@@std@@V?$vector@V?$vector@IV?$allocator@I@std@@@std@@V?$allocator@V?$vector@IV?$allocator@I@std@@@std@@@2@@2@@std@@@2@@std@@@Z
         33   20 0002F8F0 ??0FilterHandle@PixelEngine@@QEAA@$$QEAU01@@Z
         34   21 0002F8C0 ??0FilterHandle@PixelEngine@@QEAA@AEBU01@@Z
         35   22 00048EC0 ??0FilterHandle@PixelEngine@@QEAA@_KAEBV?$basic_string@DU?$char_traits@D@std@@V?$allocator@D@2@@std@@@Z
         36   23 00039FF0 ??0ISyntaxFacade@PixelEngine@@QEAA@PEAV1@AEBV?$basic_string@DU?$char_traits@D@std@@V?$allocator@D@2@@std@@@Z
         37   24 0002F470 ??0Level@PixelEngine@@AEAA@AEAVPyramidRenderer@@_K11AEBVIView@1@@Z
         38   25 00039A40 ??0PixelEngine@@QEAA@AEAVRenderBackend@@AEBVRenderContext@@@Z
         39   26 000389B0 ??0PixelEngine@@QEAA@XZ
         40   27 0002F790 ??0Region@PixelEngine@@QEAA@$$QEAV01@@Z
         41   28 0002F750 ??0Region@PixelEngine@@QEAA@AEBV01@@Z
         42   29 0002F3C0 ??0Region@PixelEngine@@QEAA@V?$shared_ptr@VInternalRegion@@@std@@@Z
         43   2A 0002F450 ??0Region@PixelEngine@@QEAA@XZ
         44   2B 0002FA10 ??0View@PixelEngine@@QEAA@$$QEAV01@@Z
         45   2C 0002F4A0 ??0View@PixelEngine@@QEAA@AEAVIView@1@@Z
         46   2D 0002F9F0 ??0View@PixelEngine@@QEAA@AEBV01@@Z
         47   2E 0002F500 ??0View@PixelEngine@@QEAA@AEBVViewIMAGEPROCESSING@1@@Z
         48   2F 0002F4E0 ??0View@PixelEngine@@QEAA@AEBVViewIVD@1@@Z
         49   30 0002F4C0 ??0View@PixelEngine@@QEAA@AEBVViewSOURCE@1@@Z
         50   31 0002FE90 ??0ViewIMAGEPROCESSING@PixelEngine@@QEAA@$$QEAV01@@Z
         51   32 0002F5E0 ??0ViewIMAGEPROCESSING@PixelEngine@@QEAA@AEAVIView@1@@Z
         52   33 0002FE70 ??0ViewIMAGEPROCESSING@PixelEngine@@QEAA@AEBV01@@Z
         53   34 0002F600 ??0ViewIMAGEPROCESSING@PixelEngine@@QEAA@AEBVView@1@@Z
         54   35 0002FC50 ??0ViewIVD@PixelEngine@@QEAA@$$QEAV01@@Z
         55   36 0002F560 ??0ViewIVD@PixelEngine@@QEAA@AEAVIView@1@@Z
         56   37 0002FC30 ??0ViewIVD@PixelEngine@@QEAA@AEBV01@@Z
         57   38 0002F580 ??0ViewIVD@PixelEngine@@QEAA@AEBVView@1@@Z
         58   39 0002FB30 ??0ViewSOURCE@PixelEngine@@QEAA@$$QEAV01@@Z
         59   3A 0002F520 ??0ViewSOURCE@PixelEngine@@QEAA@AEAVIView@1@@Z
         60   3B 0002FB10 ??0ViewSOURCE@PixelEngine@@QEAA@AEBV01@@Z
         61   3C 0002F540 ??0ViewSOURCE@PixelEngine@@QEAA@AEBVView@1@@Z
         62   3D 0002FD70 ??0ViewSOURCETRUNCATION@PixelEngine@@QEAA@$$QEAV01@@Z
         63   3E 0002F5A0 ??0ViewSOURCETRUNCATION@PixelEngine@@QEAA@AEAVIView@1@@Z
         64   3F 0002FD50 ??0ViewSOURCETRUNCATION@PixelEngine@@QEAA@AEBV01@@Z
         65   40 0002F5C0 ??0ViewSOURCETRUNCATION@PixelEngine@@QEAA@AEBVView@1@@Z
         66   41 0002FFB0 ??0ViewUSER@PixelEngine@@QEAA@$$QEAV01@@Z
         67   42 00047AD0 ??0ViewUSER@PixelEngine@@QEAA@AEAVIView@1@@Z
         68   43 0002FF90 ??0ViewUSER@PixelEngine@@QEAA@AEBV01@@Z
         69   44 00047B00 ??0ViewUSER@PixelEngine@@QEAA@AEBVView@1@@Z
         70   45 0002F640 ??1DataEnvelopes@PixelEngine@@QEAA@XZ
         71   46 0002F8B0 ??1FilterHandle@PixelEngine@@QEAA@XZ
         72   47 0003A490 ??1ISyntaxFacade@PixelEngine@@QEAA@XZ
         73   48 00039B20 ??1PixelEngine@@QEAA@XZ
         74   49 0004C040 ??1Region@PixelEngine@@QEAA@XZ
         75   4A 0002F9E0 ??1View@PixelEngine@@UEAA@XZ
         76   4B 0002FE60 ??1ViewIMAGEPROCESSING@PixelEngine@@UEAA@XZ
         77   4C 0002FC20 ??1ViewIVD@PixelEngine@@UEAA@XZ
         78   4D 0002FB00 ??1ViewSOURCE@PixelEngine@@UEAA@XZ
         79   4E 0002FD40 ??1ViewSOURCETRUNCATION@PixelEngine@@UEAA@XZ
         80   4F 0002FF80 ??1ViewUSER@PixelEngine@@UEAA@XZ
         81   50 0002F970 ??4FilterHandle@PixelEngine@@QEAAAEAU01@$$QEAU01@@Z
         82   51 0002F930 ??4FilterHandle@PixelEngine@@QEAAAEAU01@AEBU01@@Z
         83   52 0002F830 ??4Region@PixelEngine@@QEAAAEAV01@$$QEAV01@@Z
         84   53 0002F7B0 ??4Region@PixelEngine@@QEAAAEAV01@AEBV01@@Z
         85   54 0002FA40 ??4View@PixelEngine@@QEAAAEAV01@$$QEAV01@@Z
         86   55 0002FA30 ??4View@PixelEngine@@QEAAAEAV01@AEBV01@@Z
         87   56 0002FEC0 ??4ViewIMAGEPROCESSING@PixelEngine@@QEAAAEAV01@$$QEAV01@@Z
         88   57 0002FEB0 ??4ViewIMAGEPROCESSING@PixelEngine@@QEAAAEAV01@AEBV01@@Z
         89   58 0002FC80 ??4ViewIVD@PixelEngine@@QEAAAEAV01@$$QEAV01@@Z
         90   59 0002FC70 ??4ViewIVD@PixelEngine@@QEAAAEAV01@AEBV01@@Z
         91   5A 0002FB60 ??4ViewSOURCE@PixelEngine@@QEAAAEAV01@$$QEAV01@@Z
         92   5B 0002FB50 ??4ViewSOURCE@PixelEngine@@QEAAAEAV01@AEBV01@@Z
         93   5C 0002FDA0 ??4ViewSOURCETRUNCATION@PixelEngine@@QEAAAEAV01@$$QEAV01@@Z
         94   5D 0002FD90 ??4ViewSOURCETRUNCATION@PixelEngine@@QEAAAEAV01@AEBV01@@Z
         95   5E 0002FFE0 ??4ViewUSER@PixelEngine@@QEAAAEAV01@$$QEAV01@@Z
         96   5F 0002FFD0 ??4ViewUSER@PixelEngine@@QEAAAEAV01@AEBV01@@Z
         97   60 00052FF0 ??8DataEnvelopes@PixelEngine@@QEBA_NAEBV01@@Z
         98   61 0002F460 ??8Region@PixelEngine@@QEAA_NAEBV01@@Z
         99   62 0086CF70 ??@4454630cf517d55e92ad5b751c5539fc@
        100   63 0086D030 ??@71693a05e52d7cfc7b65a8ec4288c692@
        101   64 0003A8E0 ??AISyntaxFacade@PixelEngine@@QEAAAEAVSubImage@01@_K@Z
        102   65 0003A780 ??APixelEngine@@QEAAAEAVISyntaxFacade@0@AEBV?$basic_string@DU?$char_traits@D@std@@V?$allocator@D@2@@std@@@Z
        103   66 00048D70 ??AView@PixelEngine@@QEBA?AVLevel@1@_K@Z
        104   67 0004C030 ??BISyntaxFacade@PixelEngine@@QEBA_NXZ
        105   68 00724208 ??_7View@PixelEngine@@6B@
        106   69 00719100 ??_7ViewIMAGEPROCESSING@PixelEngine@@6B@
        107   6A 00719178 ??_7ViewIVD@PixelEngine@@6B@
        108   6B 00719168 ??_7ViewSOURCE@PixelEngine@@6B@
        109   6C 00718FD0 ??_7ViewSOURCETRUNCATION@PixelEngine@@6B@
        110   6D 007208D0 ??_7ViewUSER@PixelEngine@@6B@
        111   6E 0086D168 ?EmptyRange@Region@PixelEngine@@1V?$vector@_KV?$allocator@_K@std@@@std@@A
        112   6F 007189A0 ?KeyValueType@PixelEngine@@0V?$array@U?$pair@W4Key@PixelEngine@@W4ValueType@2@@std@@$0CF@@std@@B
        113   70 00042120 ?abort@ISyntaxFacade@PixelEngine@@QEAAXXZ
        114   71 00044370 ?addFilter@Level@PixelEngine@@QEBA_KAEAVFilter@@V?$vector@_KV?$allocator@_K@std@@@std@@11@Z
        115   72 00048EF0 ?addFilter@View@PixelEngine@@QEBA?AUFilterHandle@2@AEAVFilter@@V?$vector@_KV?$allocator@_K@std@@@std@@11@Z
        116   73 0004C270 ?addView@ISyntaxFacade@PixelEngine@@QEAA_KXZ
        117   74 000444A0 ?appendFilterParameters@Level@PixelEngine@@QEBAXAEAVProcessingParameters@@@Z
        118   75 00052D60 ?asRectangles@DataEnvelopes@PixelEngine@@QEBA?AV?$vector@V?$vector@IV?$allocator@I@std@@@std@@V?$allocator@V?$vector@IV?$allocator@I@std@@@std@@@2@@std@@XZ
        119   76 0003EC10 ?bitsAllocated@ISyntaxFacade@PixelEngine@@QEBA_KXZ
        120   77 00049250 ?bitsAllocated@View@PixelEngine@@QEBAGXZ
        121   78 0003EC90 ?bitsStored@ISyntaxFacade@PixelEngine@@QEBA_KXZ
        122   79 00049270 ?bitsStored@View@PixelEngine@@QEBAGXZ
        123   7A 00050E70 ?blockIdToTileIds@PixelEngine@@AEBA?AV?$vector@_KV?$allocator@_K@std@@@std@@_K@Z
        124   7B 0003BDB0 ?blockPos@ISyntaxFacade@PixelEngine@@QEBA?AV?$vector@_KV?$allocator@_K@std@@@std@@_K@Z
        125   7C 0003BD20 ?blockSize@ISyntaxFacade@PixelEngine@@QEBA?AV?$vector@_KV?$allocator@_K@std@@@std@@_K@Z
        126   7D 00039FC0 ?blockSizes@PixelEngine@@QEBAAEBV?$vector@V?$basic_string@DU?$char_traits@D@std@@V?$allocator@D@2@@std@@V?$allocator@V?$basic_string@DU?$char_traits@D@std@@V?$allocator@D@2@@std@@@2@@std@@XZ
        127   7E 00044310 ?chainSourceView@Level@PixelEngine@@QEBAXAEBVIView@2@HHH@Z
        128   7F 00048D90 ?chainSourceView@View@PixelEngine@@QEBAXAEBV12@HHH@Z
        129   80 0004B580 ?clearRenderBuffers@PixelEngine@@QEAAXXZ
        130   81 0004B560 ?clearRenderCache@PixelEngine@@QEAAXXZ
        131   82 0004B540 ?clearRenderTarget@PixelEngine@@QEAAXAEBV?$vector@_KV?$allocator@_K@std@@@std@@_K@Z
        132   83 0004B780 ?clientCertificates@PixelEngine@@QEAAXAEBV?$basic_string@DU?$char_traits@D@std@@V?$allocator@D@2@@std@@00@Z
        133   84 00041DF0 ?close@ISyntaxFacade@PixelEngine@@QEAAXXZ
        134   85 0003B200 ?colorspaceTransform@ISyntaxFacade@PixelEngine@@AEBAAEBV?$basic_string@DU?$char_traits@D@std@@V?$allocator@D@2@@std@@_K@Z
        135   86 0003B0D0 ?colorspaceTransform@ISyntaxFacade@PixelEngine@@AEBA_KAEBV?$basic_string@DU?$char_traits@D@std@@V?$allocator@D@2@@std@@@Z
        136   87 0003B250 ?colorspaceTransform@ISyntaxFacade@PixelEngine@@QEBAAEBV?$basic_string@DU?$char_traits@D@std@@V?$allocator@D@2@@std@@XZ
        137   88 00039FD0 ?colorspaceTransforms@PixelEngine@@QEBAAEBV?$vector@V?$basic_string@DU?$char_traits@D@std@@V?$allocator@D@2@@std@@V?$allocator@V?$basic_string@DU?$char_traits@D@std@@V?$allocator@D@2@@std@@@2@@std@@XZ
        138   89 00053030 ?combineHash@DataEnvelopes@PixelEngine@@AEBA?AV?$vector@EV?$allocator@E@std@@@std@@AEBV?$vector@V?$vector@EV?$allocator@E@std@@@std@@V?$allocator@V?$vector@EV?$allocator@E@std@@@std@@@2@@4@@Z
        139   8A 0003B260 ?compressor@ISyntaxFacade@PixelEngine@@AEAAXAEBV?$basic_string@DU?$char_traits@D@std@@V?$allocator@D@2@@std@@@Z
        140   8B 0003B3A0 ?compressor@ISyntaxFacade@PixelEngine@@QEBAAEBV?$basic_string@DU?$char_traits@D@std@@V?$allocator@D@2@@std@@XZ
        141   8C 00039FA0 ?compressors@PixelEngine@@QEBAAEBV?$vector@V?$basic_string@DU?$char_traits@D@std@@V?$allocator@D@2@@std@@V?$allocator@V?$basic_string@DU?$char_traits@D@std@@V?$allocator@D@2@@std@@@2@@std@@XZ
        142   8D 0003ADF0 ?container@ISyntaxFacade@PixelEngine@@AEAAXAEBV?$basic_string@DU?$char_traits@D@std@@V?$allocator@D@2@@std@@00@Z
        143   8E 00039F40 ?containerVersion@PixelEngine@@QEBAAEBV?$basic_string@DU?$char_traits@D@std@@V?$allocator@D@2@@std@@AEBV23@@Z
        144   8F 00039F30 ?containers@PixelEngine@@QEBAAEBV?$vector@V?$basic_string@DU?$char_traits@D@std@@V?$allocator@D@2@@std@@V?$allocator@V?$basic_string@DU?$char_traits@D@std@@V?$allocator@D@2@@std@@@2@@std@@XZ
        145   90 00049DF0 ?createDataEnvelopesProxy@PixelEngine@@AEAA?AV?$shared_ptr@VDataEnvelopesProxy@PixelEngine@@@std@@AEBVView@1@_KAEBVDataEnvelopes@1@@Z
        146   91 00052D50 ?dataEnvelopes@DataEnvelopes@PixelEngine@@QEBAAEBV?$vector@U?$pair@V?$vector@GV?$allocator@G@std@@@std@@V?$vector@V?$vector@IV?$allocator@I@std@@@std@@V?$allocator@V?$vector@IV?$allocator@I@std@@@std@@@2@@2@@std@@V?$allocator@U?$pair@V?$vector@GV?$allocator@G@std@@@std@@V?$vector@V?$vector@IV?$allocator@I@std@@@std@@V?$allocator@V?$vector@IV?$allocator@I@std@@@std@@@2@@2@@std@@@2@@std@@XZ
        147   92 00049240 ?dataEnvelopes@View@PixelEngine@@QEBAAEBVDataEnvelopes@2@_K@Z
        148   93 00049160 ?dimensionRanges@View@PixelEngine@@QEBA?AV?$vector@V?$array@I$02@std@@V?$allocator@V?$array@I$02@std@@@2@@std@@_K@Z
        149   94 000491C0 ?dimensionTypes@View@PixelEngine@@QEBAAEBV?$vector@V?$basic_string@DU?$char_traits@D@std@@V?$allocator@D@2@@std@@V?$allocator@V?$basic_string@DU?$char_traits@D@std@@V?$allocator@D@2@@std@@@2@@std@@XZ
        150   95 00049180 ?dimensions@View@PixelEngine@@QEBAAEBV?$vector@V?$basic_string@DU?$char_traits@D@std@@V?$allocator@D@2@@std@@V?$allocator@V?$basic_string@DU?$char_traits@D@std@@V?$allocator@D@2@@std@@@2@@std@@XZ
        151   96 00049220 ?discreteValues@View@PixelEngine@@QEBAAEBV?$vector@V?$vector@V?$basic_string@DU?$char_traits@D@std@@V?$allocator@D@2@@std@@V?$allocator@V?$basic_string@DU?$char_traits@D@std@@V?$allocator@D@2@@std@@@2@@std@@V?$allocator@V?$vector@V?$basic_string@DU?$char_traits@D@std@@V?$allocator@D@2@@std@@V?$allocator@V?$basic_string@DU?$char_traits@D@std@@V?$allocator@D@2@@std@@@2@@std@@@2@@std@@XZ
        152   97 0004C1D0 ?draw@Region@PixelEngine@@QEAAX_K@Z
        153   98 00053BC0 ?drawRegion@PixelEngine@@AEAAXAEAVInternalRegion@@_K@Z
        154   99 00044590 ?filterWidth@Level@PixelEngine@@QEBA?AV?$vector@V?$array@H$01@std@@V?$allocator@V?$array@H$01@std@@@2@@std@@V?$vector@_KV?$allocator@_K@std@@@4@AEBV54@@Z
        155   9A 00041310 ?finalizeGeometryAndProperties@ISyntaxFacade@PixelEngine@@QEAAXXZ
        156   9B 0004C180 ?get@Region@PixelEngine@@QEAA?AV?$vector@EV?$allocator@E@std@@@std@@XZ
        157   9C 0004C1B0 ?get@Region@PixelEngine@@QEAA_KPEAX_K@Z
        158   9D 000512B0 ?getBlitFilter@PixelEngine@@AEAAAEBVFilter@@_K0@Z
        159   9E 00047170 ?getColorCorrectionBlackPoint@ViewIMAGEPROCESSING@PixelEngine@@QEAANXZ
        160   9F 00046D80 ?getColorCorrectionGamma@ViewIMAGEPROCESSING@PixelEngine@@QEAANXZ
        161   A0 000475C0 ?getColorCorrectionWhitePoint@ViewIMAGEPROCESSING@PixelEngine@@QEAANXZ
        162   A1 00047940 ?getColorGain@ViewIMAGEPROCESSING@PixelEngine@@QEAANXZ
        163   A2 00044460 ?getFilterId@Level@PixelEngine@@QEBA_K_K@Z
        164   A3 00051830 ?getMaskFilter@PixelEngine@@AEAAAEBVFilter@@_K0@Z
        165   A4 0004C140 ?getPendingTiles@Region@PixelEngine@@QEAA_KXZ
        166   A5 00053660 ?getRegion@PixelEngine@@AEAA?AV?$vector@EV?$allocator@E@std@@@std@@AEAVInternalRegion@@@Z
        167   A6 00053920 ?getRegion@PixelEngine@@AEAA_KPEAX_KAEAVInternalRegion@@@Z
        168   A7 000469A0 ?getSharpness@ViewIMAGEPROCESSING@PixelEngine@@QEAANXZ
        169   A8 000534A0 ?hash@DataEnvelopes@PixelEngine@@AEBA?AV?$vector@EV?$allocator@E@std@@@std@@AEBV?$vector@U?$pair@V?$vector@GV?$allocator@G@std@@@std@@V?$vector@V?$vector@IV?$allocator@I@std@@@std@@V?$allocator@V?$vector@IV?$allocator@I@std@@@std@@@2@@2@@std@@V?$allocator@U?$pair@V?$vector@GV?$allocator@G@std@@@std@@V?$vector@V?$vector@IV?$allocator@I@std@@@std@@V?$allocator@V?$vector@IV?$allocator@I@std@@@std@@@2@@2@@std@@@2@@4@@Z
        170   A9 000531E0 ?hash@DataEnvelopes@PixelEngine@@AEBA?AV?$vector@EV?$allocator@E@std@@@std@@AEBV?$vector@V?$vector@IV?$allocator@I@std@@@std@@V?$allocator@V?$vector@IV?$allocator@I@std@@@std@@@2@@4@@Z
        171   AA 00049360 ?highBit@View@PixelEngine@@QEBAGXZ
        172   AB 0003BD10 ?id@ISyntaxFacade@PixelEngine@@QEBAAEBV?$basic_string@DU?$char_traits@D@std@@V?$allocator@D@2@@std@@XZ
        173   AC 0004C170 ?id@Region@PixelEngine@@QEBA_KXZ
        174   AD 000493F0 ?id@View@PixelEngine@@QEBA_KXZ
        175   AE 00041460 ?includeInputRegion@ISyntaxFacade@PixelEngine@@QEAAXAEBV?$vector@_KV?$allocator@_K@std@@@std@@0_K@Z
        176   AF 00040E40 ?initialize@ISyntaxFacade@PixelEngine@@QEAAXAEBV?$vector@_KV?$allocator@_K@std@@@std@@AEBV?$basic_string@DU?$char_traits@D@std@@V?$allocator@D@2@@4@111_K222@Z
        177   B0 0004C1F0 ?initialized@ISyntaxFacade@PixelEngine@@QEBA_NW4CannedView@2@@Z
        178   B1 0004B7D0 ?initialized@ISyntaxFacade@PixelEngine@@QEBA_N_K@Z
        179   B2 0004B9F0 ?isHamamatsu@ISyntaxFacade@PixelEngine@@AEBA_NXZ
        180   B3 0004B8A0 ?isPhilips@ISyntaxFacade@PixelEngine@@QEBA_NXZ
        181   B4 0004BB40 ?isUFS@ISyntaxFacade@PixelEngine@@QEBA_NXZ
        182   B5 0004BCB0 ?isUFSb@ISyntaxFacade@PixelEngine@@QEBA_NXZ
        183   B6 0004BEA0 ?isUVS@ISyntaxFacade@PixelEngine@@QEBA_NXZ
        184   B7 00041B00 ?isUserView@ISyntaxFacade@PixelEngine@@AEBA_N_K@Z
        185   B8 00046150 ?loadDefaultParameters@ViewSOURCETRUNCATION@PixelEngine@@QEAAXXZ
        186   B9 0004B5D0 ?multiPerformer@PixelEngine@@IEAAAEAVMultiPerformer@@XZ
        187   BA 0004B760 ?networkTimeout@PixelEngine@@QEAAX_K@Z
        188   BB 0003EB10 ?numComponents@ISyntaxFacade@PixelEngine@@QEBA_KXZ
        189   BC 0003EB90 ?numImages@ISyntaxFacade@PixelEngine@@QEBA_KXZ
        190   BD 0003EA90 ?numLevels@ISyntaxFacade@PixelEngine@@QEBA_KXZ
        191   BE 0003EA10 ?numTiles@ISyntaxFacade@PixelEngine@@QEBA_KXZ
        192   BF 0003EF40 ?open@ISyntaxFacade@PixelEngine@@QEAAXAEBV?$basic_string@DU?$char_traits@D@std@@V?$allocator@D@2@@std@@0H0@Z
        193   C0 0003ED10 ?open@ISyntaxFacade@PixelEngine@@QEAAXPEAV?$basic_iostream@DU?$char_traits@D@std@@@std@@AEBV?$basic_string@DU?$char_traits@D@std@@V?$allocator@D@2@@4@H1@Z
        194   C1 00040550 ?openImageContainer@ISyntaxFacade@PixelEngine@@AEAAXAEBV?$basic_string@DU?$char_traits@D@std@@V?$allocator@D@2@@std@@H0@Z
        195   C2 00049200 ?origin@View@PixelEngine@@QEBAAEBV?$vector@NV?$allocator@N@std@@@std@@XZ
        196   C3 0003BC10 ?paddedSize@ISyntaxFacade@PixelEngine@@AEBA?AV?$vector@_KV?$allocator@_K@std@@@std@@XZ
        197   C4 00049380 ?pixelRepresentation@View@PixelEngine@@QEBAGXZ
        198   C5 000493B0 ?planarConfiguration@View@PixelEngine@@QEBAGXZ
        199   C6 00041720 ?preallocatePixels@ISyntaxFacade@PixelEngine@@QEAAXAEBV?$vector@_KV?$allocator@_K@std@@@std@@0_K@Z
        200   C7 0003CAF0 ?prefetchBlocks@PixelEngine@@IEAAXAEBV?$set@_KU?$less@_K@std@@V?$allocator@_K@2@@std@@@Z
        201   C8 0004A380 ?process@PixelEngine@@AEAA_NXZ
        202   C9 0004A7D0 ?processSome@PixelEngine@@IEAA?AV?$list@VRegion@PixelEngine@@V?$allocator@VRegion@PixelEngine@@@std@@@std@@XZ
        203   CA 000419C0 ?putPixels@ISyntaxFacade@PixelEngine@@QEAAXPEBXAEBVtype_info@@AEBV?$vector@_KV?$allocator@_K@std@@@std@@_K3@Z
        204   CB 0003B8E0 ?quality@ISyntaxFacade@PixelEngine@@QEAAXAEBV?$basic_string@DU?$char_traits@D@std@@V?$allocator@D@2@@std@@@Z
        205   CC 0003BBF0 ?quality@ISyntaxFacade@PixelEngine@@QEBAAEBV?$basic_string@DU?$char_traits@D@std@@V?$allocator@D@2@@std@@XZ
        206   CD 00039FE0 ?qualityPresets@PixelEngine@@QEBAAEBV?$vector@V?$basic_string@DU?$char_traits@D@std@@V?$allocator@D@2@@std@@V?$allocator@V?$basic_string@DU?$char_traits@D@std@@V?$allocator@D@2@@std@@@2@@std@@XZ
        207   CE 0003BC00 ?quantizer@ISyntaxFacade@PixelEngine@@QEBAAEBV?$vector@V?$vector@HV?$allocator@H@std@@@std@@V?$allocator@V?$vector@HV?$allocator@H@std@@@std@@@2@@std@@XZ
        208   CF 0004C120 ?range@Region@PixelEngine@@QEBAAEBV?$vector@_KV?$allocator@_K@std@@@std@@XZ
        209   D0 0003BE40 ?readBlock@ISyntaxFacade@PixelEngine@@QEAA_KAEAV?$vector@EV?$allocator@E@std@@@std@@@Z
        210   D1 0003BF60 ?readBlock@ISyntaxFacade@PixelEngine@@QEAA_KAEAV?$vector@EV?$allocator@E@std@@@std@@AEBV?$vector@_KV?$allocator@_K@std@@@4@@Z
        211   D2 0003BED0 ?readBlock@ISyntaxFacade@PixelEngine@@QEAA_KPEAX_K@Z
        212   D3 0004C0D0 ?ready@Region@PixelEngine@@QEBA_NXZ
        213   D4 00041B60 ?removeRegionFromImageFromRegionLists@ISyntaxFacade@PixelEngine@@AEAAXAEAV?$map@_KV?$weak_ptr@VInternalRegion@@@std@@U?$less@_K@2@V?$allocator@U?$pair@$$CB_KV?$weak_ptr@VInternalRegion@@@std@@@std@@@2@@std@@@Z
        214   D5 0004B5A0 ?renderBackendInstance@PixelEngine@@QEBA?AV?$shared_ptr@VRenderBackendInstance@@@std@@XZ
        215   D6 0004C100 ?renderScheduled@Region@PixelEngine@@QEBA_NXZ
        216   D7 00049400 ?requestRegionInternal@PixelEngine@@IEAA?AV?$shared_ptr@VInternalRegion@@@std@@AEBVView@1@AEBV?$vector@_KV?$allocator@_K@std@@@3@_N1W4BufferType@1@@Z
        217   D8 00049940 ?requestRegions@PixelEngine@@AEAA?AV?$list@VRegion@PixelEngine@@V?$allocator@VRegion@PixelEngine@@@std@@@std@@AEBVView@1@AEBV?$vector@V?$vector@_KV?$allocator@_K@std@@@std@@V?$allocator@V?$vector@_KV?$allocator@_K@std@@@std@@@2@@3@AEBVDataEnvelopes@1@_NAEBV?$vector@_KV?$allocator@_K@std@@@3@W4BufferType@1@@Z
        218   D9 00049770 ?requestRegions@PixelEngine@@AEAA?AV?$list@VRegion@PixelEngine@@V?$allocator@VRegion@PixelEngine@@@std@@@std@@AEBVView@1@AEBV?$vector@V?$vector@_KV?$allocator@_K@std@@@std@@V?$allocator@V?$vector@_KV?$allocator@_K@std@@@std@@@2@@3@_NAEBV?$vector@_KV?$allocator@_K@std@@@3@W4BufferType@1@@Z
        219   DA 00049100 ?requestRegions@View@PixelEngine@@QEAA?AV?$list@VRegion@PixelEngine@@V?$allocator@VRegion@PixelEngine@@@std@@@std@@AEBV?$vector@V?$vector@_KV?$allocator@_K@std@@@std@@V?$allocator@V?$vector@_KV?$allocator@_K@std@@@std@@@2@@4@AEBVDataEnvelopes@2@_NAEBV?$vector@_KV?$allocator@_K@std@@@4@W4BufferType@2@@Z
        220   DB 000490B0 ?requestRegions@View@PixelEngine@@QEAA?AV?$list@VRegion@PixelEngine@@V?$allocator@VRegion@PixelEngine@@@std@@@std@@AEBV?$vector@V?$vector@_KV?$allocator@_K@std@@@std@@V?$allocator@V?$vector@_KV?$allocator@_K@std@@@std@@@2@@4@_NAEBV?$vector@_KV?$allocator@_K@std@@@4@W4BufferType@2@@Z
        221   DC 000493C0 ?samplesPerPixel@View@PixelEngine@@QEBAGXZ
        222   DD 000491E0 ?scale@View@PixelEngine@@QEBAAEBV?$vector@NV?$allocator@N@std@@@std@@XZ
        223   DE 0003DB20 ?scheduleDecompressBlock@PixelEngine@@AEAA?AU?$pair@V?$shared_ptr@VCachedBlock@@@std@@V?$shared_ptr@VCachedBlockLock@@@2@@std@@$$QEAV?$vector@EV?$allocator@E@std@@@3@_K1AEBV?$vector@_KV?$allocator@_K@std@@@3@1I1@Z
        224   DF 0004B230 ?scheduleRegionRender@PixelEngine@@IEAA_NAEAVInternalRegion@@@Z
        225   E0 00046F10 ?setColorCorrectionBlackPoint@ViewIMAGEPROCESSING@PixelEngine@@QEAAXN@Z
        226   E1 00046BF0 ?setColorCorrectionGamma@ViewIMAGEPROCESSING@PixelEngine@@QEAAXN@Z
        227   E2 00047360 ?setColorCorrectionWhitePoint@ViewIMAGEPROCESSING@PixelEngine@@QEAAXN@Z
        228   E3 000477B0 ?setColorGain@ViewIMAGEPROCESSING@PixelEngine@@QEAAXN@Z
        229   E4 00047B40 ?setParameter@ViewUSER@PixelEngine@@QEAAXUFilterHandle@2@AEBVSingleFilterParameters@@@Z
        230   E5 000465D0 ?setSharpness@ViewIMAGEPROCESSING@PixelEngine@@QEAAXN@Z
        231   E6 000462A0 ?setTruncation@ViewSOURCETRUNCATION@PixelEngine@@QEAAX_N0AEBV?$map@_KV?$vector@_KV?$allocator@_K@std@@@std@@U?$less@_K@2@V?$allocator@U?$pair@$$CB_KV?$vector@_KV?$allocator@_K@std@@@std@@@std@@@2@@std@@@Z
        232   E7 0003BCA0 ?size@ISyntaxFacade@PixelEngine@@QEBA?AV?$vector@_KV?$allocator@_K@std@@@std@@XZ
        233   E8 000509F0 ?tileIdToBlockIdAndOffsetAndSize@PixelEngine@@AEBA?AV?$tuple@_K_KV?$vector@_KV?$allocator@_K@std@@@std@@@std@@_K@Z
        234   E9 000491A0 ?units@View@PixelEngine@@QEBAAEBV?$vector@V?$basic_string@DU?$char_traits@D@std@@V?$allocator@D@2@@std@@V?$allocator@V?$basic_string@DU?$char_traits@D@std@@V?$allocator@D@2@@std@@@2@@std@@XZ
        235   EA 0004C330 ?userView@ISyntaxFacade@PixelEngine@@QEBA?AVViewUSER@2@_K@Z
        236   EB 00041B50 ?userViews@ISyntaxFacade@PixelEngine@@AEBAAEBV?$set@_KU?$less@_K@std@@V?$allocator@_K@2@@std@@XZ
        237   EC 000464A0 ?verifyView@ViewIMAGEPROCESSING@PixelEngine@@AEAAXPEBD@Z
        238   ED 000380F0 ?version@PixelEngine@@SA?AV?$basic_string@DU?$char_traits@D@std@@V?$allocator@D@2@@std@@XZ
        239   EE 0004AA20 ?waitAll@PixelEngine@@QEAAXAEBV?$list@VRegion@PixelEngine@@V?$allocator@VRegion@PixelEngine@@@std@@@std@@@Z
        240   EF 0004AD40 ?waitAny@PixelEngine@@QEAA?AV?$list@VRegion@PixelEngine@@V?$allocator@VRegion@PixelEngine@@@std@@@std@@AEBV23@@Z
        241   F0 0003B400 ?wavelet@ISyntaxFacade@PixelEngine@@AEAAXAEBV?$basic_string@DU?$char_traits@D@std@@V?$allocator@D@2@@std@@0@Z
        242   F1 0003B880 ?wavelet@ISyntaxFacade@PixelEngine@@QEBAAEBV?$basic_string@DU?$char_traits@D@std@@V?$allocator@D@2@@std@@XZ
        243   F2 00039FB0 ?wavelets@PixelEngine@@QEBAAEBV?$vector@V?$basic_string@DU?$char_traits@D@std@@V?$allocator@D@2@@std@@V?$allocator@V?$basic_string@DU?$char_traits@D@std@@V?$allocator@D@2@@std@@@2@@std@@XZ

  Summary

       3A000 .data
       4F000 .pdata
      17A000 .rdata
        6000 .reloc
      6B9000 .text
